target datalayout = "e-m:e-p270:32:32-p271:32:32-p272:64:64-i64:64-i128:128-f80:128-n8:16:32:64-S128"
target triple = "x86_64-pc-linux-gnu"

@pg_popcount32 = global ptr @pg_popcount32_choose, align 8
@pg_popcount64 = global ptr @pg_popcount64_choose, align 8
@pg_popcount_optimized = global ptr @pg_popcount_choose, align 8
@pg_popcount_masked_optimized = global ptr @pg_popcount_masked_choose, align 8

; Function Attrs: inlinehint nounwind uwtable
define internal i32 @__get_cpuid_max(i32 noundef %0, ptr noundef %1) #1 {
  %3 = alloca i32, align 4
  %4 = alloca ptr, align 8
  %5 = alloca i32, align 4
  %6 = alloca i32, align 4
  %7 = alloca i32, align 4
  %8 = alloca i32, align 4
  store i32 %0, ptr %3, align 4
  store ptr %1, ptr %4, align 8
  call void @llvm.lifetime.start.p0(i64 4, ptr %5) #6
  call void @llvm.lifetime.start.p0(i64 4, ptr %6) #6
  call void @llvm.lifetime.start.p0(i64 4, ptr %7) #6
  call void @llvm.lifetime.start.p0(i64 4, ptr %8) #6
  %9 = load i32, ptr %3, align 4
  %10 = call { i32, i32, i32, i32 } asm "  xchgq  %rbx,${1:q}\0A  cpuid\0A  xchgq  %rbx,${1:q}", "={ax},=r,={cx},={dx},0,~{dirflag},~{fpsr},~{flags}"(i32 %9) #7, !srcloc !15
  %11 = extractvalue { i32, i32, i32, i32 } %10, 0
  %12 = extractvalue { i32, i32, i32, i32 } %10, 1
  %13 = extractvalue { i32, i32, i32, i32 } %10, 2
  %14 = extractvalue { i32, i32, i32, i32 } %10, 3
  store i32 %11, ptr %5, align 4
  store i32 %12, ptr %6, align 4
  store i32 %13, ptr %7, align 4
  store i32 %14, ptr %8, align 4
  %15 = load ptr, ptr %4, align 8
  %16 = icmp ne ptr %15, null
  br i1 %16, label %17, label %20

17:                                               ; preds = %2
  %18 = load i32, ptr %6, align 4
  %19 = load ptr, ptr %4, align 8
  store i32 %18, ptr %19, align 4
  br label %20

20:                                               ; preds = %17, %2
  %21 = load i32, ptr %5, align 4
  call void @llvm.lifetime.end.p0(i64 4, ptr %8) #6
  call void @llvm.lifetime.end.p0(i64 4, ptr %7) #6
  call void @llvm.lifetime.end.p0(i64 4, ptr %6) #6
  call void @llvm.lifetime.end.p0(i64 4, ptr %5) #6
  ret i32 %21
}

; Function Attrs: inlinehint nounwind uwtable
define internal i32 @__get_cpuid(i32 noundef %0, ptr noundef %1, ptr noundef %2, ptr noundef %3, ptr noundef %4) #1 {
  %6 = alloca i32, align 4
  %7 = alloca i32, align 4
  %8 = alloca ptr, align 8
  %9 = alloca ptr, align 8
  %10 = alloca ptr, align 8
  %11 = alloca ptr, align 8
  %12 = alloca i32, align 4
  %13 = alloca i32, align 4
  store i32 %0, ptr %7, align 4
  store ptr %1, ptr %8, align 8
  store ptr %2, ptr %9, align 8
  store ptr %3, ptr %10, align 8
  store ptr %4, ptr %11, align 8
  call void @llvm.lifetime.start.p0(i64 4, ptr %12) #6
  %14 = load i32, ptr %7, align 4
  %15 = and i32 %14, -2147483648
  %16 = call i32 @__get_cpuid_max(i32 noundef %15, ptr noundef null)
  store i32 %16, ptr %12, align 4
  %17 = load i32, ptr %12, align 4
  %18 = icmp eq i32 %17, 0
  br i1 %18, label %23, label %19

19:                                               ; preds = %5
  %20 = load i32, ptr %12, align 4
  %21 = load i32, ptr %7, align 4
  %22 = icmp ult i32 %20, %21
  br i1 %22, label %23, label %24

23:                                               ; preds = %19, %5
  store i32 0, ptr %6, align 4
  store i32 1, ptr %13, align 4
  br label %35

24:                                               ; preds = %19
  %25 = load ptr, ptr %8, align 8
  %26 = load ptr, ptr %9, align 8
  %27 = load ptr, ptr %10, align 8
  %28 = load ptr, ptr %11, align 8
  %29 = load i32, ptr %7, align 4
  %30 = call { i32, i32, i32, i32 } asm "  xchgq  %rbx,${1:q}\0A  cpuid\0A  xchgq  %rbx,${1:q}", "={ax},=r,={cx},={dx},0,~{dirflag},~{fpsr},~{flags}"(i32 %29) #7, !srcloc !14
  %31 = extractvalue { i32, i32, i32, i32 } %30, 0
  %32 = extractvalue { i32, i32, i32, i32 } %30, 1
  %33 = extractvalue { i32, i32, i32, i32 } %30, 2
  %34 = extractvalue { i32, i32, i32, i32 } %30, 3
  store i32 %31, ptr %25, align 4
  store i32 %32, ptr %26, align 4
  store i32 %33, ptr %27, align 4
  store i32 %34, ptr %28, align 4
  store i32 1, ptr %6, align 4
  store i32 1, ptr %13, align 4
  br label %35

35:                                               ; preds = %24, %23
  call void @llvm.lifetime.end.p0(i64 4, ptr %12) #6
  %36 = load i32, ptr %6, align 4
  ret i32 %36
}

; Function Attrs: nounwind uwtable
define internal zeroext i1 @pg_popcount_available() #0 {
  %1 = alloca [4 x i32], align 16
  call void @llvm.lifetime.start.p0(i64 16, ptr %1) #6
  call void @llvm.memset.p0.i64(ptr align 16 %1, i8 0, i64 16, i1 false)
  %2 = getelementptr inbounds [4 x i32], ptr %1, i64 0, i64 0
  %3 = getelementptr inbounds [4 x i32], ptr %1, i64 0, i64 1
  %4 = getelementptr inbounds [4 x i32], ptr %1, i64 0, i64 2
  %5 = getelementptr inbounds [4 x i32], ptr %1, i64 0, i64 3
  %6 = call i32 @__get_cpuid(i32 noundef 1, ptr noundef %2, ptr noundef %3, ptr noundef %4, ptr noundef %5)
  %7 = getelementptr inbounds [4 x i32], ptr %1, i64 0, i64 2
  %8 = load i32, ptr %7, align 8
  %9 = and i32 %8, 8388608
  %10 = icmp ne i32 %9, 0
  call void @llvm.lifetime.end.p0(i64 16, ptr %1) #6
  ret i1 %10
}

; Function Attrs: inlinehint nounwind uwtable
define internal void @choose_popcount_functions() #1 {
  %1 = call zeroext i1 @pg_popcount_available()
  br i1 %1, label %2, label %3

2:                                                ; preds = %0
  store ptr @pg_popcount32_fast, ptr @pg_popcount32, align 8
  store ptr @pg_popcount64_fast, ptr @pg_popcount64, align 8
  store ptr @pg_popcount_fast, ptr @pg_popcount_optimized, align 8
  store ptr @pg_popcount_masked_fast, ptr @pg_popcount_masked_optimized, align 8
  br label %4

3:                                                ; preds = %0
  store ptr @pg_popcount32_slow, ptr @pg_popcount32, align 8
  store ptr @pg_popcount64_slow, ptr @pg_popcount64, align 8
  store ptr @pg_popcount_slow, ptr @pg_popcount_optimized, align 8
  store ptr @pg_popcount_masked_slow, ptr @pg_popcount_masked_optimized, align 8
  br label %4

4:                                                ; preds = %3, %2
  %5 = call zeroext i1 @pg_popcount_avx512_available()
  br i1 %5, label %6, label %7

6:                                                ; preds = %4
  store ptr @pg_popcount_avx512, ptr @pg_popcount_optimized, align 8
  store ptr @pg_popcount_masked_avx512, ptr @pg_popcount_masked_optimized, align 8
  br label %7

7:                                                ; preds = %6, %4
  ret void
}

; Function Attrs: nounwind uwtable
define internal i64 @pg_popcount_choose(ptr noundef %0, i32 noundef %1) #0 {
  %3 = alloca ptr, align 8
  %4 = alloca i32, align 4
  store ptr %0, ptr %3, align 8
  store i32 %1, ptr %4, align 4
  call void @choose_popcount_functions()
  %5 = load ptr, ptr @pg_popcount_optimized, align 8
  %6 = load ptr, ptr %3, align 8
  %7 = load i32, ptr %4, align 4
  %8 = call i64 %5(ptr noundef %6, i32 noundef %7)
  ret i64 %8
}