; Function Attrs: nounwind uwtable
define internal i64 @pg_popcount_choose(ptr noundef %0, i32 noundef %1) #0 {
  %3 = tail call { i32, i32, i32, i32 } asm "  xchgq  %rbx,${1:q}\0A  cpuid\0A  xchgq  %rbx,${1:q}", "={ax},=r,={cx},={dx},0,~{dirflag},~{fpsr},~{flags}"(i32 0) #6, !srcloc !3
  %4 = extractvalue { i32, i32, i32, i32 } %3, 0
  %5 = icmp eq i32 %4, 0
  br i1 %5, label %.thread21.i, label %pg_popcount_available.exit.i

pg_popcount_available.exit.i:                     ; preds = %2
  %6 = tail call { i32, i32, i32, i32 } asm "  xchgq  %rbx,${1:q}\0A  cpuid\0A  xchgq  %rbx,${1:q}", "={ax},=r,={cx},={dx},0,~{dirflag},~{fpsr},~{flags}"(i32 1) #6, !srcloc !4
  %.fr.i = freeze { i32, i32, i32, i32 } %6
  %7 = extractvalue { i32, i32, i32, i32 } %.fr.i, 2
  %8 = and i32 %7, 8388608
  %.not.i = icmp eq i32 %8, 0
  br i1 %.not.i, label %9, label %.thread21.i

9:                                                ; preds = %pg_popcount_available.exit.i
  br label %.thread21.i

.thread21.i:                                      ; preds = %9, %pg_popcount_available.exit.i, %2
  %10 = phi ptr [ @pg_popcount_slow, %2 ], [ @pg_popcount_slow, %9 ], [ @pg_popcount_fast, %pg_popcount_available.exit.i ]
  %11 = phi ptr [ @pg_popcount32_slow, %2 ], [ @pg_popcount32_slow, %9 ], [ @pg_popcount32_fast, %pg_popcount_available.exit.i ]
  %12 = phi ptr [ @pg_popcount64_slow, %2 ], [ @pg_popcount64_slow, %9 ], [ @pg_popcount64_fast, %pg_popcount_available.exit.i ]
  %13 = phi ptr [ @pg_popcount_masked_slow, %2 ], [ @pg_popcount_masked_slow, %9 ], [ @pg_popcount_masked_fast, %pg_popcount_available.exit.i ]
  store ptr %11, ptr @pg_popcount32, align 8
  store ptr %12, ptr @pg_popcount64, align 8
  store ptr %10, ptr @pg_popcount_optimized, align 8
  store ptr %13, ptr @pg_popcount_masked_optimized, align 8
  %14 = tail call zeroext i1 @pg_popcount_avx512_available() #7
  br i1 %14, label %15, label %.thread21.i.choose_popcount_functions.exit_crit_edge

.thread21.i.choose_popcount_functions.exit_crit_edge: ; preds = %.thread21.i
  %.pre = load ptr, ptr @pg_popcount_optimized, align 8
  br label %choose_popcount_functions.exit

15:                                               ; preds = %.thread21.i
  store ptr @pg_popcount_avx512, ptr @pg_popcount_optimized, align 8
  store ptr @pg_popcount_masked_avx512, ptr @pg_popcount_masked_optimized, align 8
  br label %choose_popcount_functions.exit

choose_popcount_functions.exit:                   ; preds = %.thread21.i.choose_popcount_functions.exit_crit_edge, %15
  %16 = phi ptr [ %.pre, %.thread21.i.choose_popcount_functions.exit_crit_edge ], [ @pg_popcount_avx512, %15 ]
  %17 = tail call i64 %16(ptr noundef %0, i32 noundef %1) #7
  ret i64 %17
}